; Function Attrs: nounwind uwtable
define dso_local void @uv_cond_destroy(ptr noundef %0) local_unnamed_addr #0 {
  %2 = tail call i32 @pthread_cond_destroy(ptr noundef %0) #10
  %.not = icmp eq i32 %2, 0
  br i1 %.not, label %4, label %3

3:                                                ; preds = %1
  tail call void @abort() #11
  unreachable

4:                                                ; preds = %1
  ret void
}